; Function Attrs: nounwind uwtable
define dso_local range(i32 -1, 1) i32 @strbuf_appendwholeline(ptr noundef captures(none) %0, ptr noundef %1, i32 noundef %2) local_unnamed_addr #3 {
  %4 = alloca %struct.strbuf, align 8
  call void @llvm.lifetime.start.p0(i64 24, ptr nonnull %4) #25
  call void @llvm.memcpy.p0.p0.i64(ptr noundef nonnull align 8 dereferenceable(24) %4, ptr noundef nonnull align 8 dereferenceable(24) @__const.strbuf_addftime.munged_fmt, i64 24, i1 false)
  %5 = tail call i32 @feof(ptr noundef %1) #25
  %.not.i = icmp eq i32 %5, 0
  br i1 %.not.i, label %6, label %21

6:                                                ; preds = %3
  %7 = getelementptr inbounds nuw i8, ptr %4, i64 8
  %8 = getelementptr inbounds nuw i8, ptr %4, i64 16
  %9 = tail call ptr @__errno_location() #27
  call void @llvm.memset.p0.i64(ptr noundef nonnull align 8 dereferenceable(16) %7, i8 0, i64 16, i1 false)
  store i32 0, ptr %9, align 4, !tbaa !33
  %10 = call i64 @getdelim(ptr noundef nonnull %8, ptr noundef nonnull %4, i32 noundef %2, ptr noundef %1) #25
  %11 = icmp sgt i64 %10, 0
  br i1 %11, label %26, label %12

12:                                               ; preds = %6
  %13 = load i32, ptr %9, align 4, !tbaa !33
  %14 = icmp eq i32 %13, 12
  br i1 %14, label %15, label %16

15:                                               ; preds = %12
  call void (ptr, ...) @die(ptr noundef nonnull @.str.14) #24
  unreachable

16:                                               ; preds = %12
  %17 = load ptr, ptr %8, align 8, !tbaa !12
  %.not16.i = icmp eq ptr %17, null
  br i1 %.not16.i, label %18, label %19

18:                                               ; preds = %16
  call void @llvm.memcpy.p0.p0.i64(ptr noundef nonnull align 8 dereferenceable(24) %4, ptr noundef nonnull align 8 dereferenceable(24) @__const.strbuf_addftime.munged_fmt, i64 24, i1 false)
  br label %21

19:                                               ; preds = %16
  store i64 0, ptr %7, align 8, !tbaa !16
  %.not9.i18.i = icmp eq ptr %17, @strbuf_slopbuf
  br i1 %.not9.i18.i, label %21, label %20

20:                                               ; preds = %19
  store i8 0, ptr %17, align 1, !tbaa !4
  br label %21

21:                                               ; preds = %3, %18, %19, %20
  %22 = load i64, ptr %4, align 8, !tbaa !15
  %.not.i3 = icmp eq i64 %22, 0
  br i1 %.not.i3, label %strbuf_release.exit, label %23

23:                                               ; preds = %21
  %24 = getelementptr inbounds nuw i8, ptr %4, i64 16
  %25 = load ptr, ptr %24, align 8, !tbaa !12
  br label %strbuf_release.exit.sink.split

26:                                               ; preds = %6
  store i64 %10, ptr %7, align 8, !tbaa !16
  call void @strbuf_addbuf(ptr noundef %0, ptr noundef nonnull %4)
  %27 = load i64, ptr %4, align 8, !tbaa !15
  %.not.i4 = icmp eq i64 %27, 0
  br i1 %.not.i4, label %strbuf_release.exit, label %28

28:                                               ; preds = %26
  %29 = load ptr, ptr %8, align 8, !tbaa !12
  br label %strbuf_release.exit.sink.split

strbuf_release.exit.sink.split:                   ; preds = %23, %28
  %.sink = phi ptr [ %29, %28 ], [ %25, %23 ]
  %.0.ph = phi i32 [ 0, %28 ], [ -1, %23 ]
  call void @free(ptr noundef %.sink) #25
  br label %strbuf_release.exit

strbuf_release.exit:                              ; preds = %strbuf_release.exit.sink.split, %26, %21
  %.0 = phi i32 [ -1, %21 ], [ 0, %26 ], [ %.0.ph, %strbuf_release.exit.sink.split ]
  call void @llvm.lifetime.end.p0(i64 24, ptr nonnull %4) #25
  ret i32 %.0
}